target datalayout = "e-m:e-p270:32:32-p271:32:32-p272:64:64-i64:64-i128:128-f80:128-n8:16:32:64-S128"
target triple = "x86_64-pc-linux-gnu"

%struct._typeobject = type { %struct.PyVarObject, ptr, i64, i64, ptr, i64, ptr, ptr, ptr, ptr, ptr, ptr, ptr, ptr, ptr, ptr, ptr, ptr, ptr, i64, ptr, ptr, ptr, ptr, i64, ptr, ptr, ptr, ptr, ptr, ptr, ptr, ptr, ptr, i64, ptr, ptr, ptr, ptr, ptr, ptr, ptr, ptr, ptr, ptr, ptr, i32, ptr, ptr, i8, i16 }
%struct.PyVarObject = type { %struct._object, i64 }
%struct._object = type { %union.anon, ptr }
%union.anon = type { i64 }
%struct.PyGetSetDef = type { ptr, ptr, ptr, ptr, ptr }
%struct.PyDescrObject = type { %struct._object, ptr, ptr, ptr }
%struct.PyGetSetDescrObject = type { %struct.PyDescrObject, ptr }
%struct.anon = type { i32, i32 }

@.str.12 = private unnamed_addr constant [2 x i8] c"?\00", align 1
@PyExc_TypeError = external global ptr, align 8
@.str.26 = private unnamed_addr constant [72 x i8] c"descriptor '%V' for '%.100s' objects doesn't apply to a '%.100s' object\00", align 1
@PyExc_AttributeError = external global ptr, align 8
@.str.35 = private unnamed_addr constant [51 x i8] c"attribute '%V' of '%.100s' objects is not readable\00", align 1

; Function Attrs: inlinehint nounwind uwtable
define internal i32 @Py_IS_TYPE(ptr noundef %0, ptr noundef %1) #3 {
  %3 = alloca ptr, align 8
  %4 = alloca ptr, align 8
  store ptr %0, ptr %3, align 8, !tbaa !4
  store ptr %1, ptr %4, align 8, !tbaa !33
  %5 = load ptr, ptr %3, align 8, !tbaa !4
  %6 = call ptr @_Py_TYPE(ptr noundef %5)
  %7 = load ptr, ptr %4, align 8, !tbaa !33
  %8 = icmp eq ptr %6, %7
  %9 = zext i1 %8 to i32
  ret i32 %9
}

; Function Attrs: inlinehint nounwind uwtable
define internal i32 @PyType_HasFeature(ptr noundef %0, i64 noundef %1) #3 {
  %3 = alloca ptr, align 8
  %4 = alloca i64, align 8
  %5 = alloca i64, align 8
  store ptr %0, ptr %3, align 8, !tbaa !33
  store i64 %1, ptr %4, align 8, !tbaa !32
  call void @llvm.lifetime.start.p0(i64 8, ptr %5) #6
  %6 = load ptr, ptr %3, align 8, !tbaa !33
  %7 = getelementptr inbounds nuw %struct._typeobject, ptr %6, i32 0, i32 19
  %8 = load i64, ptr %7, align 8, !tbaa !160
  store i64 %8, ptr %5, align 8, !tbaa !32
  %9 = load i64, ptr %5, align 8, !tbaa !32
  %10 = load i64, ptr %4, align 8, !tbaa !32
  %11 = and i64 %9, %10
  %12 = icmp ne i64 %11, 0
  %13 = zext i1 %12 to i32
  call void @llvm.lifetime.end.p0(i64 8, ptr %5) #6
  ret i32 %13
}

; Function Attrs: inlinehint nounwind uwtable
define internal ptr @_Py_TYPE(ptr noundef %0) #3 {
  %2 = alloca ptr, align 8
  store ptr %0, ptr %2, align 8, !tbaa !4
  %3 = load ptr, ptr %2, align 8, !tbaa !4
  %4 = getelementptr inbounds nuw %struct._object, ptr %3, i32 0, i32 1
  %5 = load ptr, ptr %4, align 8, !tbaa !64
  ret ptr %5
}

; Function Attrs: inlinehint nounwind uwtable
define internal i32 @PyObject_TypeCheck(ptr noundef %0, ptr noundef %1) #3 {
  %3 = alloca ptr, align 8
  %4 = alloca ptr, align 8
  store ptr %0, ptr %3, align 8, !tbaa !4
  store ptr %1, ptr %4, align 8, !tbaa !33
  %5 = load ptr, ptr %3, align 8, !tbaa !4
  %6 = load ptr, ptr %4, align 8, !tbaa !33
  %7 = call i32 @Py_IS_TYPE(ptr noundef %5, ptr noundef %6)
  %8 = icmp ne i32 %7, 0
  br i1 %8, label %15, label %9

9:                                                ; preds = %2
  %10 = load ptr, ptr %3, align 8, !tbaa !4
  %11 = call ptr @_Py_TYPE(ptr noundef %10)
  %12 = load ptr, ptr %4, align 8, !tbaa !33
  %13 = call i32 @PyType_IsSubtype(ptr noundef %11, ptr noundef %12)
  %14 = icmp ne i32 %13, 0
  br label %15

15:                                               ; preds = %9, %2
  %16 = phi i1 [ true, %2 ], [ %14, %9 ]
  %17 = zext i1 %16 to i32
  ret i32 %17
}

; Function Attrs: alwaysinline nounwind uwtable
define internal void @Py_INCREF(ptr noundef %0) #4 {
  %2 = alloca ptr, align 8
  %3 = alloca i32, align 4
  %4 = alloca i32, align 4
  store ptr %0, ptr %2, align 8, !tbaa !4
  call void @llvm.lifetime.start.p0(i64 4, ptr %3) #6
  %5 = load ptr, ptr %2, align 8, !tbaa !4
  %6 = getelementptr inbounds nuw %struct._object, ptr %5, i32 0, i32 0
  %7 = getelementptr inbounds nuw %struct.anon, ptr %6, i32 0, i32 0
  %8 = load i32, ptr %7, align 8, !tbaa !159
  store i32 %8, ptr %3, align 4, !tbaa !16
  %9 = load i32, ptr %3, align 4, !tbaa !16
  %10 = icmp slt i32 %9, 0
  br i1 %10, label %11, label %12

11:                                               ; preds = %1
  store i32 1, ptr %4, align 4
  br label %18

12:                                               ; preds = %1
  %13 = load i32, ptr %3, align 4, !tbaa !16
  %14 = add i32 %13, 1
  %15 = load ptr, ptr %2, align 8, !tbaa !4
  %16 = getelementptr inbounds nuw %struct._object, ptr %15, i32 0, i32 0
  %17 = getelementptr inbounds nuw %struct.anon, ptr %16, i32 0, i32 0
  store i32 %14, ptr %17, align 8, !tbaa !159
  store i32 0, ptr %4, align 4
  br label %18

18:                                               ; preds = %12, %11
  call void @llvm.lifetime.end.p0(i64 4, ptr %3) #6
  %19 = load i32, ptr %4, align 4
  switch i32 %19, label %21 [
    i32 0, label %20
    i32 1, label %20
  ]

20:                                               ; preds = %18, %18
  ret void

21:                                               ; preds = %18
  unreachable
}

; Function Attrs: nounwind uwtable
define internal ptr @descr_name(ptr noundef %0) #0 {
  %2 = alloca ptr, align 8
  %3 = alloca ptr, align 8
  store ptr %0, ptr %3, align 8, !tbaa !9
  %4 = load ptr, ptr %3, align 8, !tbaa !9
  %5 = getelementptr inbounds nuw %struct.PyDescrObject, ptr %4, i32 0, i32 2
  %6 = load ptr, ptr %5, align 8, !tbaa !14
  %7 = icmp ne ptr %6, null
  br i1 %7, label %8, label %19

8:                                                ; preds = %1
  %9 = load ptr, ptr %3, align 8, !tbaa !9
  %10 = getelementptr inbounds nuw %struct.PyDescrObject, ptr %9, i32 0, i32 2
  %11 = load ptr, ptr %10, align 8, !tbaa !14
  %12 = call ptr @_Py_TYPE(ptr noundef %11)
  %13 = call i32 @PyType_HasFeature(ptr noundef %12, i64 noundef 268435456)
  %14 = icmp ne i32 %13, 0
  br i1 %14, label %15, label %19

15:                                               ; preds = %8
  %16 = load ptr, ptr %3, align 8, !tbaa !9
  %17 = getelementptr inbounds nuw %struct.PyDescrObject, ptr %16, i32 0, i32 2
  %18 = load ptr, ptr %17, align 8, !tbaa !14
  store ptr %18, ptr %2, align 8
  br label %20

19:                                               ; preds = %8, %1
  store ptr null, ptr %2, align 8
  br label %20

20:                                               ; preds = %19, %15
  %21 = load ptr, ptr %2, align 8
  ret ptr %21
}

; Function Attrs: nounwind uwtable
define internal i32 @descr_check(ptr noundef %0, ptr noundef %1) #0 {
  %3 = alloca i32, align 4
  %4 = alloca ptr, align 8
  %5 = alloca ptr, align 8
  store ptr %0, ptr %4, align 8, !tbaa !9
  store ptr %1, ptr %5, align 8, !tbaa !4
  %6 = load ptr, ptr %5, align 8, !tbaa !4
  %7 = load ptr, ptr %4, align 8, !tbaa !9
  %8 = getelementptr inbounds nuw %struct.PyDescrObject, ptr %7, i32 0, i32 1
  %9 = load ptr, ptr %8, align 8, !tbaa !10
  %10 = call i32 @PyObject_TypeCheck(ptr noundef %6, ptr noundef %9)
  %11 = icmp ne i32 %10, 0
  br i1 %11, label %26, label %12

12:                                               ; preds = %2
  %13 = load ptr, ptr @PyExc_TypeError, align 8, !tbaa !4
  %14 = load ptr, ptr %4, align 8, !tbaa !9
  %15 = call ptr @descr_name(ptr noundef %14)
  %16 = load ptr, ptr %4, align 8, !tbaa !9
  %17 = getelementptr inbounds nuw %struct.PyDescrObject, ptr %16, i32 0, i32 1
  %18 = load ptr, ptr %17, align 8, !tbaa !10
  %19 = getelementptr inbounds nuw %struct._typeobject, ptr %18, i32 0, i32 1
  %20 = load ptr, ptr %19, align 8, !tbaa !25
  %21 = load ptr, ptr %5, align 8, !tbaa !4
  %22 = call ptr @_Py_TYPE(ptr noundef %21)
  %23 = getelementptr inbounds nuw %struct._typeobject, ptr %22, i32 0, i32 1
  %24 = load ptr, ptr %23, align 8, !tbaa !25
  %25 = call ptr (ptr, ptr, ...) @PyErr_Format(ptr noundef %13, ptr noundef @.str.26, ptr noundef %15, ptr noundef @.str.12, ptr noundef %20, ptr noundef %24)
  store i32 -1, ptr %3, align 4
  br label %27

26:                                               ; preds = %2
  store i32 0, ptr %3, align 4
  br label %27

27:                                               ; preds = %26, %12
  %28 = load i32, ptr %3, align 4
  ret i32 %28
}

; Function Attrs: inlinehint nounwind uwtable
define internal ptr @_Py_NewRef(ptr noundef %0) #3 {
  %2 = alloca ptr, align 8
  store ptr %0, ptr %2, align 8, !tbaa !4
  %3 = load ptr, ptr %2, align 8, !tbaa !4
  call void @Py_INCREF(ptr noundef %3)
  %4 = load ptr, ptr %2, align 8, !tbaa !4
  ret ptr %4
}

; Function Attrs: nounwind uwtable
define internal ptr @getset_get(ptr noundef %0, ptr noundef %1, ptr noundef %2) #0 {
  %4 = alloca ptr, align 8
  %5 = alloca ptr, align 8
  %6 = alloca ptr, align 8
  %7 = alloca ptr, align 8
  %8 = alloca ptr, align 8
  %9 = alloca i32, align 4
  store ptr %0, ptr %5, align 8, !tbaa !4
  store ptr %1, ptr %6, align 8, !tbaa !4
  store ptr %2, ptr %7, align 8, !tbaa !4
  call void @llvm.lifetime.start.p0(i64 8, ptr %8) #6
  %10 = load ptr, ptr %5, align 8, !tbaa !4
  store ptr %10, ptr %8, align 8, !tbaa !9
  %11 = load ptr, ptr %6, align 8, !tbaa !4
  %12 = icmp eq ptr %11, null
  br i1 %12, label %13, label %16

13:                                               ; preds = %3
  %14 = load ptr, ptr %8, align 8, !tbaa !9
  %15 = call ptr @_Py_NewRef(ptr noundef %14)
  store ptr %15, ptr %4, align 8
  store i32 1, ptr %9, align 4
  br label %52

16:                                               ; preds = %3
  %17 = load ptr, ptr %8, align 8, !tbaa !9
  %18 = load ptr, ptr %6, align 8, !tbaa !4
  %19 = call i32 @descr_check(ptr noundef %17, ptr noundef %18)
  %20 = icmp slt i32 %19, 0
  br i1 %20, label %21, label %22

21:                                               ; preds = %16
  store ptr null, ptr %4, align 8
  store i32 1, ptr %9, align 4
  br label %52

22:                                               ; preds = %16
  %23 = load ptr, ptr %8, align 8, !tbaa !9
  %24 = getelementptr inbounds nuw %struct.PyGetSetDescrObject, ptr %23, i32 0, i32 1
  %25 = load ptr, ptr %24, align 8, !tbaa !39
  %26 = getelementptr inbounds nuw %struct.PyGetSetDef, ptr %25, i32 0, i32 1
  %27 = load ptr, ptr %26, align 8, !tbaa !41
  %28 = icmp ne ptr %27, null
  br i1 %28, label %29, label %42

29:                                               ; preds = %22
  %30 = load ptr, ptr %8, align 8, !tbaa !9
  %31 = getelementptr inbounds nuw %struct.PyGetSetDescrObject, ptr %30, i32 0, i32 1
  %32 = load ptr, ptr %31, align 8, !tbaa !39
  %33 = getelementptr inbounds nuw %struct.PyGetSetDef, ptr %32, i32 0, i32 1
  %34 = load ptr, ptr %33, align 8, !tbaa !41
  %35 = load ptr, ptr %6, align 8, !tbaa !4
  %36 = load ptr, ptr %8, align 8, !tbaa !9
  %37 = getelementptr inbounds nuw %struct.PyGetSetDescrObject, ptr %36, i32 0, i32 1
  %38 = load ptr, ptr %37, align 8, !tbaa !39
  %39 = getelementptr inbounds nuw %struct.PyGetSetDef, ptr %38, i32 0, i32 4
  %40 = load ptr, ptr %39, align 8, !tbaa !43
  %41 = call ptr %34(ptr noundef %35, ptr noundef %40)
  store ptr %41, ptr %4, align 8
  store i32 1, ptr %9, align 4
  br label %52

42:                                               ; preds = %22
  %43 = load ptr, ptr @PyExc_AttributeError, align 8, !tbaa !4
  %44 = load ptr, ptr %8, align 8, !tbaa !9
  %45 = call ptr @descr_name(ptr noundef %44)
  %46 = load ptr, ptr %8, align 8, !tbaa !9
  %47 = getelementptr inbounds nuw %struct.PyDescrObject, ptr %46, i32 0, i32 1
  %48 = load ptr, ptr %47, align 8, !tbaa !10
  %49 = getelementptr inbounds nuw %struct._typeobject, ptr %48, i32 0, i32 1
  %50 = load ptr, ptr %49, align 8, !tbaa !25
  %51 = call ptr (ptr, ptr, ...) @PyErr_Format(ptr noundef %43, ptr noundef @.str.35, ptr noundef %45, ptr noundef @.str.12, ptr noundef %50)
  store ptr null, ptr %4, align 8
  store i32 1, ptr %9, align 4
  br label %52

52:                                               ; preds = %42, %29, %21, %13
  call void @llvm.lifetime.end.p0(i64 8, ptr %8) #6
  %53 = load ptr, ptr %4, align 8
  ret ptr %53
}